target datalayout = "e-m:e-p270:32:32-p271:32:32-p272:64:64-i64:64-i128:128-f80:128-n8:16:32:64-S128"
target triple = "x86_64-pc-linux-gnu"

@.str.6 = private unnamed_addr constant [16 x i8] c"/proc/self/stat\00", align 1

; Function Attrs: nounwind uwtable
define dso_local i32 @uv_resident_set_memory(ptr noundef %0) #0 {
  %2 = alloca i32, align 4
  %3 = alloca ptr, align 8
  %4 = alloca [1024 x i8], align 16
  %5 = alloca ptr, align 8
  %6 = alloca i64, align 8
  %7 = alloca i32, align 4
  %8 = alloca i32, align 4
  %9 = alloca i32, align 4
  store ptr %0, ptr %3, align 8
  call void @llvm.lifetime.start.p0(i64 1024, ptr %4) #12
  call void @llvm.lifetime.start.p0(i64 8, ptr %5) #12
  call void @llvm.lifetime.start.p0(i64 8, ptr %6) #12
  call void @llvm.lifetime.start.p0(i64 4, ptr %7) #12
  call void @llvm.lifetime.start.p0(i64 4, ptr %8) #12
  %10 = getelementptr inbounds [1024 x i8], ptr %4, i64 0, i64 0
  %11 = call i32 @uv__slurp(ptr noundef @.str.6, ptr noundef %10, i64 noundef 1024)
  store i32 %11, ptr %7, align 4
  %12 = load i32, ptr %7, align 4
  %13 = icmp slt i32 %12, 0
  br i1 %13, label %14, label %16

14:                                               ; preds = %1
  %15 = load i32, ptr %7, align 4
  store i32 %15, ptr %2, align 4
  store i32 1, ptr %9, align 4
  br label %55

16:                                               ; preds = %1
  %17 = getelementptr inbounds [1024 x i8], ptr %4, i64 0, i64 0
  %18 = call ptr @strrchr(ptr noundef %17, i32 noundef 41) #13
  store ptr %18, ptr %5, align 8
  %19 = load ptr, ptr %5, align 8
  %20 = icmp eq ptr %19, null
  br i1 %20, label %21, label %22

21:                                               ; preds = %16
  br label %54

22:                                               ; preds = %16
  store i32 1, ptr %8, align 4
  br label %23

23:                                               ; preds = %34, %22
  %24 = load i32, ptr %8, align 4
  %25 = icmp sle i32 %24, 22
  br i1 %25, label %26, label %37

26:                                               ; preds = %23
  %27 = load ptr, ptr %5, align 8
  %28 = getelementptr inbounds i8, ptr %27, i64 1
  %29 = call ptr @strchr(ptr noundef %28, i32 noundef 32) #13
  store ptr %29, ptr %5, align 8
  %30 = load ptr, ptr %5, align 8
  %31 = icmp eq ptr %30, null
  br i1 %31, label %32, label %33

32:                                               ; preds = %26
  br label %54

33:                                               ; preds = %26
  br label %34

34:                                               ; preds = %33
  %35 = load i32, ptr %8, align 4
  %36 = add nsw i32 %35, 1
  store i32 %36, ptr %8, align 4
  br label %23

37:                                               ; preds = %23
  %38 = call ptr @__errno_location() #14
  store i32 0, ptr %38, align 4
  %39 = load ptr, ptr %5, align 8
  %40 = call i64 @strtol(ptr noundef %39, ptr noundef null, i32 noundef 10) #12
  store i64 %40, ptr %6, align 8
  %41 = load i64, ptr %6, align 8
  %42 = icmp slt i64 %41, 0
  br i1 %42, label %47, label %43

43:                                               ; preds = %37
  %44 = call ptr @__errno_location() #14
  %45 = load i32, ptr %44, align 4
  %46 = icmp ne i32 %45, 0
  br i1 %46, label %47, label %48

47:                                               ; preds = %43, %37
  br label %54

48:                                               ; preds = %43
  %49 = load i64, ptr %6, align 8
  %50 = call i32 @getpagesize() #14
  %51 = sext i32 %50 to i64
  %52 = mul nsw i64 %49, %51
  %53 = load ptr, ptr %3, align 8
  store i64 %52, ptr %53, align 8
  store i32 0, ptr %2, align 4
  store i32 1, ptr %9, align 4
  br label %55

54:                                               ; preds = %47, %32, %21
  store i32 -22, ptr %2, align 4
  store i32 1, ptr %9, align 4
  br label %55

55:                                               ; preds = %54, %48, %14
  call void @llvm.lifetime.end.p0(i64 4, ptr %8) #12
  call void @llvm.lifetime.end.p0(i64 4, ptr %7) #12
  call void @llvm.lifetime.end.p0(i64 8, ptr %6) #12
  call void @llvm.lifetime.end.p0(i64 8, ptr %5) #12
  call void @llvm.lifetime.end.p0(i64 1024, ptr %4) #12
  %56 = load i32, ptr %2, align 4
  ret i32 %56
}