; Function Attrs: nounwind uwtable
define dso_local range(i32 -2147483648, 1) i32 @uv_resident_set_memory(ptr noundef writeonly captures(none) %0) local_unnamed_addr #0 {
  %2 = alloca [1024 x i8], align 16
  call void @llvm.lifetime.start.p0(i64 1024, ptr nonnull %2) #17
  %3 = call i32 @uv__slurp(ptr noundef nonnull @.str.6, ptr noundef nonnull %2, i64 noundef 1024) #17
  %4 = icmp slt i32 %3, 0
  br i1 %4, label %.loopexit, label %5

5:                                                ; preds = %1
  %6 = call ptr @strrchr(ptr noundef nonnull dereferenceable(1) %2, i32 noundef 41) #18
  %7 = icmp eq ptr %6, null
  br i1 %7, label %.loopexit, label %.preheader

8:                                                ; preds = %.preheader
  %9 = add nuw nsw i32 %.019, 1
  %exitcond.not = icmp eq i32 %9, 23
  br i1 %exitcond.not, label %13, label %.preheader

.preheader:                                       ; preds = %5, %8
  %.019 = phi i32 [ %9, %8 ], [ 1, %5 ]
  %.01218 = phi ptr [ %11, %8 ], [ %6, %5 ]
  %10 = getelementptr inbounds nuw i8, ptr %.01218, i64 1
  %11 = call ptr @strchr(ptr noundef nonnull dereferenceable(1) %10, i32 noundef 32) #18
  %12 = icmp eq ptr %11, null
  br i1 %12, label %.loopexit, label %8

13:                                               ; preds = %8
  %14 = tail call ptr @__errno_location() #19
  store i32 0, ptr %14, align 4
  %15 = call i64 @strtol(ptr noundef nonnull captures(none) %11, ptr noundef null, i32 noundef 10) #17
  %16 = icmp slt i64 %15, 0
  br i1 %16, label %.loopexit, label %17

17:                                               ; preds = %13
  %18 = load i32, ptr %14, align 4
  %.not = icmp eq i32 %18, 0
  br i1 %.not, label %19, label %.loopexit

19:                                               ; preds = %17
  %20 = tail call i32 @getpagesize() #19
  %21 = sext i32 %20 to i64
  %22 = mul nsw i64 %15, %21
  store i64 %22, ptr %0, align 8
  br label %.loopexit

.loopexit:                                        ; preds = %.preheader, %5, %17, %13, %1, %19
  %.011 = phi i32 [ 0, %19 ], [ %3, %1 ], [ -22, %13 ], [ -22, %17 ], [ -22, %5 ], [ -22, %.preheader ]
  call void @llvm.lifetime.end.p0(i64 1024, ptr nonnull %2) #17
  ret i32 %.011
}